target datalayout = "e-m:e-p270:32:32-p271:32:32-p272:64:64-i64:64-i128:128-f80:128-n8:16:32:64-S128"
target triple = "x86_64-unknown-linux-gnu"

%struct.redisServer = type { i32, i64, ptr, ptr, ptr, i32, i32, i32, i32, i32, ptr, ptr, ptr, ptr, ptr, ptr, i32, i32, i64, i32, i32, i32, i32, ptr, i32, i32, [41 x i8], i32, i64, i32, i32, i32, ptr, ptr, i32, i32, i64, ptr, ptr, ptr, ptr, [2 x i32], i32, i32, i32, i32, i32, [16 x ptr], i32, ptr, ptr, i32, [8 x %struct.connListener], i32, %struct.connListener, ptr, ptr, ptr, ptr, ptr, ptr, ptr, ptr, ptr, ptr, i32, ptr, i32, ptr, [3 x %struct.pause_event], [256 x i8], ptr, i64, i32, i32, i32, i32, i64, i32, i32, i32, i32, i32, i64, i64, i64, i64, i64, i64, i64, i64, i64, double, i64, i64, i64, i64, i64, i64, i64, i64, i64, i64, i64, i64, i64, i64, i64, i64, i64, i64, i64, i64, double, i64, i64, i64, i64, i64, ptr, i64, i64, i64, %struct.malloc_stats, i64, i64, i64, i64, i64, i64, i64, i64, i64, i64, i64, i64, double, [4 x i64], i64, i64, i64, i64, i64, i64, i64, i64, i64, i64, [7 x %struct.anon], i64, i64, i64, i64, i64, i64, [4 x %struct.durationStats], i32, i32, i32, i32, i32, i32, i32, i32, i32, i32, i64, i32, i32, i32, i32, i64, i64, i32, i32, i32, i32, i32, ptr, [3 x %struct.clientBufferLimitsConfig], i32, i32, ptr, i32, i32, i32, i32, ptr, ptr, i32, i32, i64, i64, i64, i64, i64, i32, i32, ptr, i32, i32, i64, i64, i64, i64, i64, i32, i32, i64, i32, i32, i32, i32, i32, i32, i32, i32, ptr, i32, i64, i64, i64, i64, ptr, i32, ptr, i32, i32, i32, i64, i64, i64, i64, i32, i32, i32, i32, i32, i32, ptr, i32, i32, ptr, i32, i32, i32, [2 x i32], i32, %struct.redisOpArray, i32, ptr, i32, ptr, i32, i32, i32, i32, i32, i32, i32, [41 x i8], [41 x i8], i64, i64, i64, i64, i32, i32, ptr, i64, i64, i64, i32, i32, i32, i32, i32, i32, i32, i64, ptr, ptr, ptr, ptr, i32, i32, ptr, ptr, i32, i32, i64, i64, i64, ptr, i32, ptr, i64, i32, i32, i32, i64, i32, i32, i32, i32, ptr, i32, i32, [41 x i8], i64, i32, ptr, i32, i32, i64, i64, i32, i32, i32, i32, i32, i64, [3 x i32], i32, i32, i32, [9 x i32], ptr, ptr, i32, i64, ptr, ptr, i32, i32, i32, i32, i64, i64, i64, i64, i64, i64, i64, i64, i64, i64, i32, i32, i64, i64, i32, i64, i64, i64, i64, i64, ptr, ptr, i32, ptr, i32, i32, i32, i64, i64, ptr, ptr, i32, i32, i32, i32, i32, ptr, ptr, ptr, i32, i32, i32, i32, i32, i32, i32, i64, i32, i64, i32, i32, i32, i32, i32, i32, i32, i64, ptr, ptr, i64, ptr, i32, %struct.aclInfo, i32, i64, i32, i32, i32, %struct.redisTLSContextConfig, ptr, ptr, ptr, ptr, ptr, i64, i32, ptr, i32, i32, i32, i64, i32, ptr }
%struct.connListener = type { [16 x i32], i32, ptr, i32, i32, ptr, ptr }
%struct.pause_event = type { i32, i64 }
%struct.malloc_stats = type { i64, i64, i64, i64, i64 }
%struct.anon = type { i64, i64, [16 x i64], i32 }
%struct.durationStats = type { i64, i64, i64 }
%struct.clientBufferLimitsConfig = type { i64, i64, i64 }
%struct.redisOpArray = type { ptr, i32, i32 }
%struct.aclInfo = type { i64, i64, i64, i64 }
%struct.redisTLSContextConfig = type { ptr, ptr, ptr, ptr, ptr, ptr, ptr, ptr, ptr, ptr, ptr, ptr, i32, i32, i32, i32 }
%struct.client = type { i64, i64, ptr, i32, ptr, ptr, ptr, ptr, ptr, i64, i64, i32, ptr, i32, i32, ptr, i64, ptr, ptr, ptr, ptr, i32, i32, i64, ptr, i64, ptr, i64, i64, i64, i32, ptr, i64, i64, i32, i32, i32, i32, i64, i64, ptr, i64, i64, i64, i64, i64, i64, i64, i64, [41 x i8], i32, ptr, i32, i32, %struct.multiState, %struct.blockingState, i64, ptr, ptr, ptr, ptr, ptr, ptr, ptr, ptr, ptr, ptr, ptr, ptr, ptr, ptr, i64, ptr, i64, i32, ptr, ptr, ptr, i64, %struct.listNode, i64, i64, i32, i64, ptr }
%struct.multiState = type { ptr, i32, i32, i32, i64, i32 }
%struct.blockingState = type { i32, i64, i32, ptr, i32, i32, i64, ptr, ptr }
%struct.listNode = type { ptr, ptr, ptr }
%struct.connection = type { ptr, i32, i32, i32, i16, i16, i16, ptr, ptr, ptr, ptr }
%struct.ConnectionType = type { ptr, ptr, ptr, ptr, ptr, ptr, ptr, ptr, ptr, ptr, ptr, ptr, ptr, ptr, ptr, ptr, ptr, ptr, ptr, ptr, ptr, ptr, ptr, ptr, ptr, ptr, ptr, ptr }

@server = external global %struct.redisServer, align 8
@.str.220 = private unnamed_addr constant [81 x i8] c"Error resurrecting the cached master, impossible to add the readable handler: %s\00", align 1
@.str.221 = private unnamed_addr constant [81 x i8] c"Error resurrecting the cached master, impossible to add the writable handler: %s\00", align 1

; Function Attrs: nounwind uwtable
define internal i32 @connSetWriteHandler(ptr noundef %conn, ptr noundef %func) #0 {
entry:
  %conn.addr = alloca ptr, align 8
  %func.addr = alloca ptr, align 8
  store ptr %conn, ptr %conn.addr, align 8
  store ptr %func, ptr %func.addr, align 8
  %0 = load ptr, ptr %conn.addr, align 8
  %type = getelementptr inbounds %struct.connection, ptr %0, i32 0, i32 0
  %1 = load ptr, ptr %type, align 8
  %set_write_handler = getelementptr inbounds %struct.ConnectionType, ptr %1, i32 0, i32 19
  %2 = load ptr, ptr %set_write_handler, align 8
  %3 = load ptr, ptr %conn.addr, align 8
  %4 = load ptr, ptr %func.addr, align 8
  %call = call i32 %2(ptr noundef %3, ptr noundef %4, i32 noundef 0)
  ret i32 %call
}

; Function Attrs: nounwind uwtable
define internal i32 @connSetReadHandler(ptr noundef %conn, ptr noundef %func) #0 {
entry:
  %conn.addr = alloca ptr, align 8
  %func.addr = alloca ptr, align 8
  store ptr %conn, ptr %conn.addr, align 8
  store ptr %func, ptr %func.addr, align 8
  %0 = load ptr, ptr %conn.addr, align 8
  %type = getelementptr inbounds %struct.connection, ptr %0, i32 0, i32 0
  %1 = load ptr, ptr %type, align 8
  %set_read_handler = getelementptr inbounds %struct.ConnectionType, ptr %1, i32 0, i32 20
  %2 = load ptr, ptr %set_read_handler, align 8
  %3 = load ptr, ptr %conn.addr, align 8
  %4 = load ptr, ptr %func.addr, align 8
  %call = call i32 %2(ptr noundef %3, ptr noundef %4)
  ret i32 %call
}

; Function Attrs: nounwind uwtable
define internal void @connSetPrivateData(ptr noundef %conn, ptr noundef %data) #0 {
entry:
  %conn.addr = alloca ptr, align 8
  %data.addr = alloca ptr, align 8
  store ptr %conn, ptr %conn.addr, align 8
  store ptr %data, ptr %data.addr, align 8
  %0 = load ptr, ptr %data.addr, align 8
  %1 = load ptr, ptr %conn.addr, align 8
  %private_data = getelementptr inbounds %struct.connection, ptr %1, i32 0, i32 7
  store ptr %0, ptr %private_data, align 8
  ret void
}

; Function Attrs: nounwind uwtable
define dso_local void @replicationResurrectCachedMaster(ptr noundef %conn) #0 {
entry:
  %conn.addr = alloca ptr, align 8
  store ptr %conn, ptr %conn.addr, align 8
  %0 = load ptr, ptr getelementptr inbounds (%struct.redisServer, ptr @server, i32 0, i32 287), align 8
  store ptr %0, ptr getelementptr inbounds (%struct.redisServer, ptr @server, i32 0, i32 286), align 8
  store ptr null, ptr getelementptr inbounds (%struct.redisServer, ptr @server, i32 0, i32 287), align 8
  %1 = load ptr, ptr %conn.addr, align 8
  %2 = load ptr, ptr getelementptr inbounds (%struct.redisServer, ptr @server, i32 0, i32 286), align 8
  %conn1 = getelementptr inbounds %struct.client, ptr %2, i32 0, i32 2
  store ptr %1, ptr %conn1, align 8
  %3 = load ptr, ptr getelementptr inbounds (%struct.redisServer, ptr @server, i32 0, i32 286), align 8
  %conn2 = getelementptr inbounds %struct.client, ptr %3, i32 0, i32 2
  %4 = load ptr, ptr %conn2, align 8
  %5 = load ptr, ptr getelementptr inbounds (%struct.redisServer, ptr @server, i32 0, i32 286), align 8
  call void @connSetPrivateData(ptr noundef %4, ptr noundef %5)
  %6 = load ptr, ptr getelementptr inbounds (%struct.redisServer, ptr @server, i32 0, i32 286), align 8
  %flags = getelementptr inbounds %struct.client, ptr %6, i32 0, i32 1
  %7 = load i64, ptr %flags, align 8
  %and = and i64 %7, -1089
  store i64 %and, ptr %flags, align 8
  %8 = load ptr, ptr getelementptr inbounds (%struct.redisServer, ptr @server, i32 0, i32 286), align 8
  %authenticated = getelementptr inbounds %struct.client, ptr %8, i32 0, i32 34
  store i32 1, ptr %authenticated, align 8
  %atomic-load = load atomic i64, ptr getelementptr inbounds (%struct.redisServer, ptr @server, i32 0, i32 349) seq_cst, align 8
  %9 = load ptr, ptr getelementptr inbounds (%struct.redisServer, ptr @server, i32 0, i32 286), align 8
  %lastinteraction = getelementptr inbounds %struct.client, ptr %9, i32 0, i32 32
  store i64 %atomic-load, ptr %lastinteraction, align 8
  store i32 12, ptr getelementptr inbounds (%struct.redisServer, ptr @server, i32 0, i32 289), align 4
  store i64 0, ptr getelementptr inbounds (%struct.redisServer, ptr @server, i32 0, i32 300), align 8
  call void @moduleFireServerEvent(i64 noundef 7, i32 noundef 0, ptr noundef null)
  %10 = load ptr, ptr getelementptr inbounds (%struct.redisServer, ptr @server, i32 0, i32 286), align 8
  call void @linkClient(ptr noundef %10)
  %11 = load ptr, ptr getelementptr inbounds (%struct.redisServer, ptr @server, i32 0, i32 286), align 8
  %conn3 = getelementptr inbounds %struct.client, ptr %11, i32 0, i32 2
  %12 = load ptr, ptr %conn3, align 8
  %call = call i32 @connSetReadHandler(ptr noundef %12, ptr noundef @readQueryFromClient)
  %tobool = icmp ne i32 %call, 0
  br i1 %tobool, label %if.then, label %if.end7

if.then:                                          ; preds = %entry
  br label %do.body

do.body:                                          ; preds = %if.then
  %13 = load i32, ptr getelementptr inbounds (%struct.redisServer, ptr @server, i32 0, i32 156), align 8
  %cmp = icmp slt i32 3, %13
  br i1 %cmp, label %if.then4, label %if.end

if.then4:                                         ; preds = %do.body
  br label %do.end

if.end:                                           ; preds = %do.body
  %call5 = call ptr @__errno_location() #12
  %14 = load i32, ptr %call5, align 4
  %call6 = call ptr @strerror(i32 noundef %14) #10
  call void (i32, ptr, ...) @_serverLog(i32 noundef 3, ptr noundef @.str.220, ptr noundef %call6)
  br label %do.end

do.end:                                           ; preds = %if.end, %if.then4
  %15 = load ptr, ptr getelementptr inbounds (%struct.redisServer, ptr @server, i32 0, i32 286), align 8
  call void @freeClientAsync(ptr noundef %15)
  br label %if.end7

if.end7:                                          ; preds = %do.end, %entry
  %16 = load ptr, ptr getelementptr inbounds (%struct.redisServer, ptr @server, i32 0, i32 286), align 8
  %call8 = call i32 @clientHasPendingReplies(ptr noundef %16)
  %tobool9 = icmp ne i32 %call8, 0
  br i1 %tobool9, label %if.then10, label %if.end23

if.then10:                                        ; preds = %if.end7
  %17 = load ptr, ptr getelementptr inbounds (%struct.redisServer, ptr @server, i32 0, i32 286), align 8
  %conn11 = getelementptr inbounds %struct.client, ptr %17, i32 0, i32 2
  %18 = load ptr, ptr %conn11, align 8
  %call12 = call i32 @connSetWriteHandler(ptr noundef %18, ptr noundef @sendReplyToClient)
  %tobool13 = icmp ne i32 %call12, 0
  br i1 %tobool13, label %if.then14, label %if.end22

if.then14:                                        ; preds = %if.then10
  br label %do.body15

do.body15:                                        ; preds = %if.then14
  %19 = load i32, ptr getelementptr inbounds (%struct.redisServer, ptr @server, i32 0, i32 156), align 8
  %cmp16 = icmp slt i32 3, %19
  br i1 %cmp16, label %if.then17, label %if.end18

if.then17:                                        ; preds = %do.body15
  br label %do.end21

if.end18:                                         ; preds = %do.body15
  %call19 = call ptr @__errno_location() #12
  %20 = load i32, ptr %call19, align 4
  %call20 = call ptr @strerror(i32 noundef %20) #10
  call void (i32, ptr, ...) @_serverLog(i32 noundef 3, ptr noundef @.str.221, ptr noundef %call20)
  br label %do.end21

do.end21:                                         ; preds = %if.end18, %if.then17
  %21 = load ptr, ptr getelementptr inbounds (%struct.redisServer, ptr @server, i32 0, i32 286), align 8
  call void @freeClientAsync(ptr noundef %21)
  br label %if.end22

if.end22:                                         ; preds = %do.end21, %if.then10
  br label %if.end23

if.end23:                                         ; preds = %if.end22, %if.end7
  ret void
}