; Function Attrs: nounwind uwtable
define dso_local void @replicationResurrectCachedMaster(ptr noundef %conn) local_unnamed_addr #0 {
entry:
  %0 = load ptr, ptr getelementptr inbounds (%struct.redisServer, ptr @server, i64 0, i32 287), align 8
  store ptr %0, ptr getelementptr inbounds (%struct.redisServer, ptr @server, i64 0, i32 286), align 8
  store ptr null, ptr getelementptr inbounds (%struct.redisServer, ptr @server, i64 0, i32 287), align 8
  %conn1 = getelementptr inbounds i8, ptr %0, i64 16
  store ptr %conn, ptr %conn1, align 8
  %1 = load ptr, ptr getelementptr inbounds (%struct.redisServer, ptr @server, i64 0, i32 286), align 8
  %conn2 = getelementptr inbounds i8, ptr %1, i64 16
  %2 = load ptr, ptr %conn2, align 8
  %private_data.i = getelementptr inbounds i8, ptr %2, i64 32
  store ptr %1, ptr %private_data.i, align 8
  %flags = getelementptr inbounds i8, ptr %1, i64 8
  %3 = load i64, ptr %flags, align 8
  %and = and i64 %3, -1089
  store i64 %and, ptr %flags, align 8
  %4 = load ptr, ptr getelementptr inbounds (%struct.redisServer, ptr @server, i64 0, i32 286), align 8
  %authenticated = getelementptr inbounds i8, ptr %4, i64 256
  store i32 1, ptr %authenticated, align 8
  %atomic-load = load atomic i64, ptr getelementptr inbounds (%struct.redisServer, ptr @server, i64 0, i32 349) seq_cst, align 8
  %5 = load ptr, ptr getelementptr inbounds (%struct.redisServer, ptr @server, i64 0, i32 286), align 8
  %lastinteraction = getelementptr inbounds i8, ptr %5, i64 240
  store i64 %atomic-load, ptr %lastinteraction, align 8
  store i32 12, ptr getelementptr inbounds (%struct.redisServer, ptr @server, i64 0, i32 289), align 4
  store i64 0, ptr getelementptr inbounds (%struct.redisServer, ptr @server, i64 0, i32 300), align 8
  tail call void @moduleFireServerEvent(i64 noundef 7, i32 noundef 0, ptr noundef null) #21
  %6 = load ptr, ptr getelementptr inbounds (%struct.redisServer, ptr @server, i64 0, i32 286), align 8
  tail call void @linkClient(ptr noundef %6) #21
  %7 = load ptr, ptr getelementptr inbounds (%struct.redisServer, ptr @server, i64 0, i32 286), align 8
  %conn3 = getelementptr inbounds i8, ptr %7, i64 16
  %8 = load ptr, ptr %conn3, align 8
  %9 = load ptr, ptr %8, align 8
  %set_read_handler.i = getelementptr inbounds i8, ptr %9, i64 160
  %10 = load ptr, ptr %set_read_handler.i, align 8
  %call.i = tail call i32 %10(ptr noundef nonnull %8, ptr noundef nonnull @readQueryFromClient) #21
  %tobool.not = icmp eq i32 %call.i, 0
  br i1 %tobool.not, label %if.end7, label %do.body

do.body:                                          ; preds = %entry
  %11 = load i32, ptr getelementptr inbounds (%struct.redisServer, ptr @server, i64 0, i32 156), align 8
  %cmp = icmp sgt i32 %11, 3
  br i1 %cmp, label %do.end, label %if.end

if.end:                                           ; preds = %do.body
  %call5 = tail call ptr @__errno_location() #23
  %12 = load i32, ptr %call5, align 4
  %call6 = tail call ptr @strerror(i32 noundef %12) #21
  tail call void (i32, ptr, ...) @_serverLog(i32 noundef 3, ptr noundef nonnull @.str.220, ptr noundef %call6) #21
  br label %do.end

do.end:                                           ; preds = %do.body, %if.end
  %13 = load ptr, ptr getelementptr inbounds (%struct.redisServer, ptr @server, i64 0, i32 286), align 8
  tail call void @freeClientAsync(ptr noundef %13) #21
  br label %if.end7

if.end7:                                          ; preds = %do.end, %entry
  %14 = load ptr, ptr getelementptr inbounds (%struct.redisServer, ptr @server, i64 0, i32 286), align 8
  %call8 = tail call i32 @clientHasPendingReplies(ptr noundef %14) #21
  %tobool9.not = icmp eq i32 %call8, 0
  br i1 %tobool9.not, label %if.end23, label %if.then10

if.then10:                                        ; preds = %if.end7
  %15 = load ptr, ptr getelementptr inbounds (%struct.redisServer, ptr @server, i64 0, i32 286), align 8
  %conn11 = getelementptr inbounds i8, ptr %15, i64 16
  %16 = load ptr, ptr %conn11, align 8
  %17 = load ptr, ptr %16, align 8
  %set_write_handler.i = getelementptr inbounds i8, ptr %17, i64 152
  %18 = load ptr, ptr %set_write_handler.i, align 8
  %call.i1 = tail call i32 %18(ptr noundef nonnull %16, ptr noundef nonnull @sendReplyToClient, i32 noundef 0) #21
  %tobool13.not = icmp eq i32 %call.i1, 0
  br i1 %tobool13.not, label %if.end23, label %do.body15

do.body15:                                        ; preds = %if.then10
  %19 = load i32, ptr getelementptr inbounds (%struct.redisServer, ptr @server, i64 0, i32 156), align 8
  %cmp16 = icmp sgt i32 %19, 3
  br i1 %cmp16, label %do.end21, label %if.end18

if.end18:                                         ; preds = %do.body15
  %call19 = tail call ptr @__errno_location() #23
  %20 = load i32, ptr %call19, align 4
  %call20 = tail call ptr @strerror(i32 noundef %20) #21
  tail call void (i32, ptr, ...) @_serverLog(i32 noundef 3, ptr noundef nonnull @.str.221, ptr noundef %call20) #21
  br label %do.end21

do.end21:                                         ; preds = %do.body15, %if.end18
  %21 = load ptr, ptr getelementptr inbounds (%struct.redisServer, ptr @server, i64 0, i32 286), align 8
  tail call void @freeClientAsync(ptr noundef %21) #21
  br label %if.end23

if.end23:                                         ; preds = %if.then10, %do.end21, %if.end7
  ret void
}